(lp0
(S'happen       freedom resolution police       occupation       question       israel       economic       disarm corps       democratic       accuse       troops       elections       opportunity inspection       uranium tactics       air                 table ii'
p1
F382.0166666666667
tp2
a(S'topic-specific scenarios       topic-1       topic-2       topic-3       america       officials       free       iran       intelligence enemy       control       mass       marine'
p3
F175.42857142857144
tp4
a(S'220011220000 ii11ee00ee iieeee eeffooeeuu iirrnntthhttee iirrnnnnttaaeettrriinnooaannttaaiilloo nnccaaoollnn ccffeeoorrnneeffnneeccrreeee nnooccnnee ssooeennmm ssaaeennmmttiiaaccnn ccttiiooccmm ccppoouummttiippnnuuggttiinngg'
p5
F144.0
tp6
a(S'test       data       c1       c2       c3       annotator-       agreement       relatedness katrina 66% 57% 65%       iraq       90% 83% 39'
p7
F34.65404502904503
tp8
a(S'achieving maximum interpolated-                 333366667777                       discourse       annual review'
p9
F30.274509803921568
tp10
a(S'6%       85%                 100%                 97%                 95%                 94%                 task       ra       ca-       agreement       ra-       agreement                 table'
p11
F28.4974358974359
tp12
a(S'identifying frequent event pairs                 contingency       relationships                 layer-3'
p13
F24.75335781910018
tp14
a(S'suspects iraq iraq develops chemical       instances'
p15
F22.65740740740741
tp16
a(S'approach generates suitable       event pair candidates'
p17
F22.44964349376114
tp18
a(S'climate change issues       rescue efforts'
p19
F22.0
tp20
a(S'dallas-       canceled       based southwest airlines'
p21
F20.958333333333332
tp22
a(S'generating event pair candi-       dates'
p23
F20.532976827094473
tp24
a(S'security council closed emergency       session'
p25
F19.75
tp26
a(S'people identify contingency discourse rela-       tions'
p27
F18.61486068111455
tp28
a(S'pam require large data       sets'
p29
F18.416666666666664
tp30
a(S'dist       dist       dist       dist       1       2       3       4       test-'
p31
F17.333333333333332
tp32
a(S'explanation question answering deals'
p33
F17.25
tp34
a(S'inter annotator       ca-       ra-'
p35
F17.0
tp36
a(S'identifying topic-specific                 333366662222                       text       documents                 layer-1'
p37
F16.976190476190474
tp38
a(S'makes con-       tingency predictions based'
p39
F16.958333333333336
tp40
a(S'dallas-based southwest       { }       \xe2\x86\x92       airlines canceled'
p41
F16.833333333333332
tp42
a(S'{ }       dallas-based southwest airlines canceled'
p43
F16.833333333333332
tp44
a(S'module generates event pair candidates'
p45
F16.782976827094473
tp46
a(S'dallas-based southwest airlines cancel'
p47
F16.5
tp48
a(S'dict causal potential       computational linguistics'
p49
F16.036363636363635
tp50
a(S'point-wise mutual in-       formation'
p51
F16.0
tp52
a(S'n-level directed acyclic       graph'
p53
F16.0
tp54
a(S'model generates ranked contingency relationships'
p55
F15.849529621154336
tp56
a(S'generate frequent event group pairs'
p57
F15.734383753501401
tp58
a(S'highly dependent frequent event pairs'
p59
F15.513229907347554
tp60
a(S'events       <       emerged       hurricane katrina passed'
p61
F15.250811688311689
tp62
a(S'security council suspects iraq'
p63
F15.12037037037037
tp64
a(S'frequent candidate event group pairs'
p65
F15.067717086834733
tp66
a(S'revious ork       ii'
p67
F15.0
tp68
a(S'assessment       ural language engineering'
p69
F14.9
tp70
a(S'causal       set       rela-       tions       hk'
p71
F14.874825174825174
tp72
a(S'model identifies       scenario-specific event pairs'
p73
F14.692717086834737
tp74
a(S'team inspecting iraqi scientists'
p75
F14.666666666666668
tp76
a(S'fully connected tree structure'
p77
F14.666666666666666
tp78
a(S'hurricane katrina       hurricane katrina disaster'
p79
F14.625
tp80
a(S'table ii shows'
p81
F14.6
tp82
a(S'contingency relations detection task       due'
p83
F14.38796992481203
tp84
a(S'con-       stantly changing flow'
p85
F14.333333333333334
tp86
a(S'na\xc4\xb1ve       lexical similarity'
p87
F14.3
tp88
a(S'generating event pair       candidates       1'
p89
F14.282976827094474
tp90
a(S'generating event pair candidates'
p91
F14.282976827094474
tp92
a(S'5%       iraq       katrina 86% 94% 92%       80% 96% 86%                 table iii       evaluation'
p93
F14.244179894179895
tp94
a(S'stronger causal rela-       tionships'
p95
F14.16969696969697
tp96
a(S'basic clustering procedure based'
p97
F14.125
tp98
a(S'pascal recognizing textual entailment'
p99
F14.0
tp100
a(S'question       answering-machine learning'
p101
F13.833333333333334
tp102
a(S'standard normalized cosine similarity'
p103
F13.8
tp104
a(S'}                 abstract-contingency discourse relations play'
p105
F13.65546218487395
tp106
a(S'katrina hit florida late'
p107
F13.5
tp108
a(S'annotating large text collections'
p109
F13.442857142857143
tp110
a(S'constraints improves temporal ordering'
p111
F13.25
tp112
a(S'explanation question answering [6]'
p113
F13.25
tp114
a(S'generates event group pairs'
p115
F13.167717086834735
tp116
a(S'higher generative probabilities       conditioned'
p117
F13.076923076923077
tp118
a(S'identify multiple sce-       narios'
p119
F13.0
tp120
a(S'domain-specific data sets       collected'
p121
F12.75
tp122
a(S'world wide web www'
p123
F12.75
tp124
a(S'incremental cue phrase learning       [4]'
p125
F12.75
tp126
a(S'identifying scenario-specific strongly related events'
p127
F12.742857142857144
tp128
a(S'natural language understanding tasks'
p129
F12.566666666666668
tp130
a(S'non-contingency pairs iden-       tified'
p131
F12.514285714285714
tp132
a(S'frequent event group pair'
p133
F12.47464349376114
tp134
a(S'subtopics       generates noisy scenarios'
p135
F12.428571428571429
tp136
a(S'discovering scenario-specific contingency       relationships'
p137
F12.39397406559878
tp138
a(S'identify-       ing causal associations'
p139
F12.303030303030303
tp140
a(S'entails predictably modifying event'
p141
F12.245098039215687
tp142
a(S'identifying scenario-specific events                 layer-2'
p143
F12.188311688311689
tp144
a(S'structure helps finding correlations'
p145
F12.133333333333333
tp146
a(S'pam represent topic-specific       scenarios'
p147
F12.095238095238095
tp148
a(S'contingency learning system architecture'
p149
F11.96727395411606
tp150
a(S'present relevant previous work'
p151
F11.95
tp152
a(S'automatically       identifies contingency information'
p153
F11.932017543859649
tp154
a(S'roles annotation tasks       agreement'
p155
F11.901098901098901
tp156
a(S'identifying frequent event pairs'
p157
F11.859383753501401
tp158
a(S'test sets oles accuracy'
p159
F11.674242424242424
tp160
a(S'predefined linguistic patterns employed'
p161
F11.666666666666668
tp162
a(S'three-layer unsupervised       statistical system'
p163
F11.576923076923077
tp164
a(S'learn strongly dependent scenario events'
p165
F11.544322344322346
tp166
a(S'easily       domain portable model'
p167
F11.44761904761905
tp168
a(S'maximum contingency score       based'
p169
F11.408208020050125
tp170
a(S'automatically identify contingency relationships'
p171
F11.39397406559878
tp172
a(S'automatically identify       contingency relationships'
p173
F11.39397406559878
tp174
a(S'contingency roles assignment task'
p175
F11.390350877192981
tp176
a(S'causal reasoning enables people'
p177
F11.303030303030303
tp178
a(S'hard-to-       build temporal classifiers'
p179
F11.25
tp180
a(S'previous data mining approaches'
p181
F11.178571428571429
tp182
a(S'discovering topic-specific       scenario events'
p183
F11.102597402597404
tp184
a(S'council suspects       gether'
p185
F11.083333333333332
tp186
a(S'identifies rela-       tionships'
p187
F11.033333333333333
tp188
a(S'pachinko allocation       topic model'
p189
F11.019047619047619
tp190
a(S'topic-specific collec-       tions'
p191
F11.0
tp192
a(S'system       obtains good results'
p193
F10.951923076923077
tp194
a(S'identifying topic-specific       scenarios'
p195
F10.928571428571429
tp196
a(S'identifying topic-specific scenarios'
p197
F10.928571428571429
tp198
a(S'discovering topic-specific scenarios'
p199
F10.928571428571429
tp200
a(S'discovering topic-specific scenarios       2'
p201
F10.928571428571429
tp202
a(S'contingency relations       contingency relationship'
p203
F10.928320802005013
tp204
a(S'contingency       causal relations       relations'
p205
F10.871952608794714
tp206
a(S'evaluate contingency relationships ranked'
p207
F10.782862954487669
tp208
a(S'security council held'
p209
F10.75
tp210
a(S'indirect rela-       tionships'
p211
F10.533333333333333
tp212
a(S'natural language events contributing'
p213
F10.254978354978356
tp214
a(S'topic-specific scenario       clusters obtained'
p215
F10.08095238095238
tp216
a(S'katrina hit florida'
p217
F10.0
tp218
a(S'predefined linguistic patterns'
p219
F9.666666666666668
tp220
a(S'inspected iraqi scientists'
p221
F9.666666666666668
tp222
a(S'tingency discourse relations'
p223
F9.65546218487395
tp224
a(S'inter-       annotator agreement'
p225
F9.615384615384615
tp226
a(S'hurricane katrina passed'
p227
F9.5625
tp228
a(S'katrina       hitflorida late'
p229
F9.5
tp230
a(S'government rescue plans'
p231
F9.5
tp232
a(S'topic-specific scenarios identified'
p233
F9.428571428571429
tp234
a(S'generate frequent combinations'
p235
F9.4
tp236
a(S'human-agreed test sets'
p237
F9.34090909090909
tp238
a(S'developed chemical weapons'
p239
F9.25
tp240
a(S'special data sets [21]'
p241
F9.25
tp242
a(S'special data       sets'
p243
F9.25
tp244
a(S'developing chemical weapons'
p245
F9.25
tp246
a(S'developing chemical       weapons'
p247
F9.25
tp248
a(S'natural language understanding'
p249
F9.233333333333334
tp250
a(S'identifying causal relationships'
p251
F9.223320158102768
tp252
a(S'linguistic patterns aim'
p253
F9.166666666666668
tp254
a(S'effect roles assignment                 figure 1'
p255
F9.13888888888889
tp256
a(S'frequent event pair'
p257
F9.09964349376114
tp258
a(S'identifying contingency relations'
p259
F9.021303258145362
tp260
a(S'ont el refers'
p261
F9.0
tp262
a(S'conditional prob-       abilities'
p263
F9.0
tp264
a(S'residential homes north       >'
p265
F9.0
tp266
a(S'supervision                 mehwish riaz'
p267
F9.0
tp268
a(S'frequent-pattern tree ap-'
p269
F9.0
tp270
a(S'latent dirichlet al-'
p271
F9.0
tp272
a(S'not-contingent ac-       cording'
p273
F9.0
tp274
a(S'urbana champaign       {       mriaz2'
p275
F9.0
tp276
a(S'beckman institute       university'
p277
F9.0
tp278
a(S'casino barge sits'
p279
F9.0
tp280
a(S'long awaited ipo'
p281
F9.0
tp282
a(S'destructive       <       force emerged'
p283
F9.0
tp284
a(S'learn       causal chains'
p285
F8.969696969696969
tp286
a(S'unlike previous works [16]'
p287
F8.916666666666666
tp288
a(S'natural language processing'
p289
F8.9
tp290
a(S'iraq war test-sets ecd'
p291
F8.840608465608465
tp292
a(S'event       group pairs'
p293
F8.8343837535014
tp294
a(S'candidate event pairs'
p295
F8.792717086834735
tp296
a(S'form good candidates'
p297
F8.791666666666666
tp298
a(S'ranked       contingency relationships'
p299
F8.782862954487669
tp300
a(S'rhetorical structure theory'
p301
F8.777777777777777
tp302
a(S'supervised learning       models [6]'
p303
F8.75
tp304
a(S'supervised       learning models [6]'
p305
F8.75
tp306
a(S'exploring contingency discourse       [7]'
p307
F8.748194014447884
tp308
a(S'classify rhetorical relations'
p309
F8.714285714285715
tp310
a(S'contingency       detection task'
p311
F8.673684210526316
tp312
a(S'contingency detection task'
p313
F8.673684210526316
tp314
a(S'training supervised models'
p315
F8.666666666666666
tp316
a(S'correct roles predicted'
p317
F8.666666666666666
tp318
a(S'international confer-       ence'
p319
F8.666666666666666
tp320
a(S'pam dirichlet parameters'
p321
F8.666666666666666
tp322
a(S'introduction                 unlike computers'
p323
F8.666666666666666
tp324
a(S'comprehending       discourse relations'
p325
F8.65546218487395
tp326
a(S'learning contingency       relations       1'
p327
F8.604636591478698
tp328
a(S'learning contingency relations'
p329
F8.604636591478698
tp330
a(S'maximum cosine       measure'
p331
F8.583333333333334
tp332
a(S'maximum       cosine measure'
p333
F8.583333333333334
tp334
a(S'unsupervised learning model'
p335
F8.566666666666666
tp336
a(S'electronic lexical database'
p337
F8.5
tp338
a(S'jointly combining implicit       [3]'
p339
F8.5
tp340
a(S'online       counterfactual theories'
p341
F8.5
tp342
a(S'probabilistic textual entailment'
p343
F8.5
tp344
a(S'war effects-economic progress'
p345
F8.5
tp346
a(S'generic applied modeling'
p347
F8.5
tp348
a(S'bigram event model'
p349
F8.47843137254902
tp350
a(S'causal lexico-syntactic patterns'
p351
F8.46969696969697
tp352
a(S'contingent/causal event pairs'
p353
F8.4593837535014
tp354
a(S'domain-specific text       collections'
p355
F8.442857142857143
tp356
a(S'interpolated precision-recall curve'
p357
F8.416666666666666
tp358
a(S'topic-specific scenario tend'
p359
F8.414285714285715
tp360
a(S'computational linguistics       acl'
p361
F8.4
tp362
a(S'mine frequent       combinations'
p363
F8.4
tp364
a(S'implicit       contingency relationships'
p365
F8.39397406559878
tp366
a(S'gale       group       http'
p367
F8.375
tp368
a(S'investigating causal relations'
p369
F8.350649350649352
tp370
a(S'iraq war collections'
p371
F8.337037037037037
tp372
a(S'top 100 ranked       relationships'
p373
F8.309178743961352
tp374
a(S'top 100       ranked relationships'
p375
F8.309178743961352
tp376
a(S'causal discourse relations'
p377
F8.291825821237587
tp378
a(S'statistical methods applied'
p379
F8.25
tp380
a(S'human judg-       ments'
p381
F8.25
tp382
a(S'news archives websites'
p383
F8.25
tp384
a(S'topic specific scenarios'
p385
F8.214285714285714
tp386
a(S'identifying scenario-specific events'
p387
F8.188311688311689
tp388
a(S'statis-       tical approach'
p389
F8.166666666666666
tp390
a(S'mining frequent patterns       [10]'
p391
F8.161904761904761
tp392
a(S'implicit discourse relations'
p393
F8.15546218487395
tp394
a(S'[       ]verb obj       subj'
p395
F8.142857142857142
tp396
a(S'< subj verb obj >'
p397
F8.142857142857142
tp398
a(S'make good candidates'
p399
F8.125
tp400
a(S'giving higher       weights'
p401
F8.076923076923077
tp402
a(S'mining causal structures'
p403
F8.064935064935064
tp404
a(S'broader causal relationships'
p405
F8.0566534914361
tp406
a(S'iraq war instances'
p407
F8.037037037037038
tp408
a(S'higher inter-annotator       agreement'
p409
F8.025641025641026
tp410
a(S'advanced topic model'
p411
F8.019047619047619
tp412
a(S'damage       global warming'
p413
F8.0
tp414
a(S'semantic role labeler'
p415
F8.0
tp416
a(S'buy hard drives'
p417
F8.0
tp418
a(S'human-       agreed data'
p419
F8.0
tp420
a(S'north-holland publishing company'
p421
F8.0
tp422
a(S'semantic role labeling'
p423
F8.0
tp424
a(S'statistical measure       effect-control-dependency'
p425
F8.0
tp426
a(S'interpo-       lated precision'
p427
F8.0
tp428
a(S'complete syntactic analysis'
p429
F8.0
tp430
a(S'people perceive       causal'
p431
F7.969696969696969
tp432
a(S'explicit discourse connectives'
p433
F7.9411764705882355
tp434
a(S'identify contingency relationships'
p435
F7.89397406559878
tp436
a(S'identify       contingency relationships'
p437
F7.89397406559878
tp438
a(S'combining local context       [11]'
p439
F7.875
tp440
a(S'table iv       shows'
p441
F7.85
tp442
a(S'table iv shows'
p443
F7.85
tp444
a(S'intelligent       text processing'
p445
F7.809523809523808
tp446
a(S'frequently purchase       laptops'
p447
F7.8
tp448
a(S'contingency annotation task'
p449
F7.7593984962406015
tp450
a(S'proposed approaches depend'
p451
F7.75
tp452
a(S'temporal query logs'
p453
F7.75
tp454
a(S'spe-       cial datasets'
p455
F7.75
tp456
a(S'discover causal relationships'
p457
F7.7233201581027675
tp458
a(S'ecr shows reasonable performance'
p459
F7.69047619047619
tp460
a(S'online encyclo-       causation'
p461
F7.666666666666667
tp462
a(S'6th international workshop'
p463
F7.666666666666666
tp464
a(S'structured mixture models'
p465
F7.666666666666666
tp466
a(S'scenario learning task'
p467
F7.664285714285715
tp468
a(S'effect roles assignment'
p469
F7.638888888888889
tp470
a(S'causal knowledge extraction'
p471
F7.636363636363637
tp472
a(S'precision-recall performance       curves'
p473
F7.607142857142858
tp474
a(S'roxana girju       department'
p475
F7.571428571428571
tp476
a(S'relatedness task shows'
p477
F7.541666666666666
tp478
a(S'iraq war dataset'
p479
F7.537037037037037
tp480
a(S'iraq war       word-types'
p481
F7.537037037037037
tp482
a(S'parameters set manually'
p483
F7.5
tp484
a(S'search queries extracted'
p485
F7.5
tp486
a(S'resulting event groups'
p487
F7.495098039215686
tp488
a(S'event causality       test'
p489
F7.436007130124778
tp490
a(S'topic-specific       scenarios'
p491
F7.428571428571429
tp492
a(S'iraq war collection'
p493
F7.425925925925926
tp494
a(S'iraq war test-sets'
p495
F7.412037037037037
tp496
a(S'tie put event'
p497
F7.411764705882353
tp498
a(S'{       }       inter-sentential contingency relationship'
p499
F7.407017543859649
tp500
a(S'{       } \xe2\x86\x92       {       intra-sentential contingency relationship'
p501
F7.407017543859649
tp502
a(S'annotators needed knowledge'
p503
F7.375
tp504
a(S'semantic entailment       relation'
p505
F7.333333333333334
tp506
a(S'capture contingency relations'
p507
F7.271303258145363
tp508
a(S'machine learning research'
p509
F7.250000000000001
tp510
a(S'interesting cognitive       study'
p511
F7.25
tp512
a(S'english sentence entails'
p513
F7.214285714285714
tp514
a(S'advanced domain knowledge'
p515
F7.214285714285714
tp516
a(S'scenario-specific       events tend'
p517
F7.188311688311688
tp518
a(S'learn-       ing methods'
p519
F7.166666666666666
tp520
a(S'web news articles'
p521
F7.166666666666666
tp522
a(S'single text document'
p523
F7.142857142857142
tp524
a(S'input text units'
p525
F7.142857142857142
tp526
a(S'manipulation theory adopted'
p527
F7.111111111111111
tp528
a(S'wordnet sense similarity'
p529
F7.085714285714285
tp530
a(S'scenario generation task'
p531
F7.080952380952381
tp532
a(S'pam generates'
p533
F7.0
tp534
a(S'emergency       session'
p535
F7.0
tp536
a(S'calculate average cosine-similarity'
p537
F7.0
tp538
a(S'model assigns sentence'
p539
F6.947619047619048
tp540
a(S'people perceive causality'
p541
F6.933333333333334
tp542
a(S'grouping events procedure'
p543
F6.888311688311688
tp544
a(S'identified contingency       dependencies'
p545
F6.807017543859649
tp546
a(S'randomly selected 80 test'
p547
F6.757575757575758
tp548
a(S'context-poor statistical measures'
p549
F6.75
tp550
a(S'potential candidates'
p551
F6.75
tp552
a(S'maximum median distance'
p553
F6.708333333333334
tp554
a(S'annotators disagreed       contingency'
p555
F6.682017543859649
tp556
a(S'inspection post-'
p557
F6.666666666666667
tp558
a(S'statistical measure effect-control-ratio'
p559
F6.666666666666667
tp560
a(S'distance penalization       measure'
p561
F6.625
tp562
a(S'automatic sense pre-       [16]'
p563
F6.619047619047619
tp564
a(S'general dependency measures'
p565
F6.6
tp566
a(S'inspection       scenario'
p567
F6.5809523809523816
tp568
a(S'human-agreed       annotated test-sets'
p569
F6.541666666666667
tp570
a(S'find       meaningful order'
p571
F6.5
tp572
a(S'transaction database records'
p573
F6.5
tp574
a(S'katrina disaster'
p575
F6.5
tp576
a(S'rank contingent pairs'
p577
F6.487012987012987
tp578
a(S'pair probabilities'
p579
F6.454545454545455
tp580
a(S'clusters semantically related'
p581
F6.433333333333334
tp582
a(S'collections       agreement'
p583
F6.415384615384616
tp584
a(S'scenario cluster discovered'
p585
F6.414285714285715
tp586
a(S'frequent pair'
p587
F6.3545454545454545
tp588
a(S'table iii'
p589
F6.35
tp590
a(S'causality notion proposed'
p591
F6.35
tp592
a(S'semantically       dependent events'
p593
F6.3421578421578415
tp594
a(S'learn associations'
p595
F6.333333333333334
tp596
a(S'data sets'
p597
F6.25
tp598
a(S'strongly related events'
p599
F6.242857142857143
tp600
a.