(lp0
(S'happen       freedom resolution police       occupation       question       israel       economic       disarm corps       democratic       accuse       troops       elections       opportunity inspection       uranium tactics       air                 table ii'
p1
F382.0166666666667
tp2
a(S'topic-specific scenarios       topic-1       topic-2       topic-3       america       officials       free       iran       intelligence enemy       control       mass       marine'
p3
F175.42857142857144
tp4
a(S'333366668888                        220011220000 ii11ee00ee iieeee eeffooeeuu iirrnntthhttee iirrnnnnttaaeettrriinnooaannttaaiilloo nnccaaoollnn ccffeeoorrnneeffnneeccrreeee nnooccnnee ssooeennmm ssaaeennmmttiiaaccnn ccttiiooccmm ccppoouummttiippnnuuggttiinngg'
p5
F144.0
tp6
a(S'220011220000 ii11ee00ee iieeee eeffooeeuu iirrnntthhttee iirrnnnnttaaeettrriinnooaannttaaiilloo nnccaaoollnn ccffeeoorrnneeffnneeccrreeee nnooccnnee ssooeennmm ssaaeennmmttiiaaccnn ccttiiooccmm ccppoouummttiippnnuuggttiinngg'
p7
F144.0
tp8
a(S'test       data       c1       c2       c3       annotator-       agreement       relatedness katrina 66% 57% 65%       iraq       90% 83% 39'
p9
F34.695711695711694
tp10
a(S'achieving maximum interpolated-                 333366667777                       discourse       annual review'
p11
F30.274509803921568
tp12
a(S'6%       85%                 100%                 97%                 95%                 94%                 task       ra       ca-       agreement       ra-       agreement                 table'
p13
F28.4974358974359
tp14
a(S'6%       85%                 94%                 95%                 97%                 100%                 task       ra       ca-       agreement       ra-       agreement                 table'
p15
F28.4974358974359
tp16
a(S'identifying frequent event pairs                 contingency       relationships                 layer-3'
p17
F24.75335781910018
tp18
a(S'suspects iraq iraq develops chemical       instances'
p19
F22.65740740740741
tp20
a(S'approach generates suitable       event pair candidates'
p21
F22.44964349376114
tp22
a(S'climate change issues       rescue efforts'
p23
F22.0
tp24
a(S'dallas-       canceled       based southwest airlines'
p25
F20.958333333333332
tp26
a(S'generating event pair candi-       dates'
p27
F20.532976827094473
tp28
a(S'security council closed emergency       session'
p29
F19.75
tp30
a(S'people identify contingency discourse rela-       tions'
p31
F18.61486068111455
tp32
a(S'pam require large data       sets'
p33
F18.416666666666664
tp34
a(S'type                 hurricane katrina       hurricane katrina disaster'
p35
F17.833333333333332
tp36
a(S'makes con-       tingency predictions based'
p37
F17.458333333333336
tp38
a(S'dist       dist       dist       dist       1       2       3       4       test-'
p39
F17.333333333333332
tp40
a(S'explanation question answering deals'
p41
F17.25
tp42
a(S'inter annotator       ca-       ra-'
p43
F17.0
tp44
a(S'identifying topic-specific                 333366662222                       text       documents                 layer-1'
p45
F16.976190476190474
tp46
a(S'dallas-based southwest       { }       \xe2\x86\x92       airlines canceled'
p47
F16.833333333333332
tp48
a(S'{ }       dallas-based southwest airlines canceled'
p49
F16.833333333333332
tp50
a(S'module generates event pair candidates'
p51
F16.782976827094473
tp52
a(S'dallas-based southwest airlines cancel'
p53
F16.5
tp54
a(S'dict causal potential       computational linguistics'
p55
F16.036363636363635
tp56
a(S'point-wise mutual in-       formation'
p57
F16.0
tp58
a(S'n-level directed acyclic       graph'
p59
F16.0
tp60
a(S'model generates ranked contingency relationships'
p61
F15.849529621154336
tp62
a(S'generate frequent event group pairs'
p63
F15.734383753501401
tp64
a(S'highly dependent frequent event pairs'
p65
F15.513229907347554
tp66
a(S'events       <       emerged       hurricane katrina passed'
p67
F15.354978354978355
tp68
a(S'security council suspects iraq'
p69
F15.12037037037037
tp70
a(S'hurricane katrina       hurricane katrina disaster'
p71
F15.083333333333332
tp72
a(S'frequent candidate event group pairs'
p73
F15.067717086834733
tp74
a(S'revious ork       ii'
p75
F15.0
tp76
a(S'assessment       ural language engineering'
p77
F14.9
tp78
a(S'causal       set       rela-       tions       hk'
p79
F14.874825174825174
tp80
a(S'model identifies       scenario-specific event pairs'
p81
F14.692717086834737
tp82
a(S'team inspecting iraqi scientists'
p83
F14.666666666666668
tp84
a(S'fully connected tree structure'
p85
F14.666666666666666
tp86
a(S'table ii shows'
p87
F14.6
tp88
a(S'contingency relations detection task       due'
p89
F14.38796992481203
tp90
a(S'con-       stantly changing flow'
p91
F14.333333333333334
tp92
a(S'na\xc4\xb1ve       lexical similarity'
p93
F14.3
tp94
a(S'5%       iraq       katrina 86% 94% 92%       80% 96% 86%                 table iii       evaluation'
p95
F14.285846560846561
tp96
a(S'generating event pair       candidates       1'
p97
F14.282976827094474
tp98
a(S'generating event pair candidates'
p99
F14.282976827094474
tp100
a(S'stronger causal rela-       tionships'
p101
F14.16969696969697
tp102
a(S'basic clustering procedure based'
p103
F14.125
tp104
a(S'pascal recognizing textual entailment'
p105
F14.0
tp106
a(S'question       answering-machine learning'
p107
F13.833333333333334
tp108
a(S'standard normalized cosine similarity'
p109
F13.8
tp110
a(S'}                 abstract-contingency discourse relations play'
p111
F13.65546218487395
tp112
a(S'katrina hit florida late'
p113
F13.541666666666666
tp114
a(S'annotating large text collections'
p115
F13.442857142857143
tp116
a(S'constraints improves temporal ordering'
p117
F13.25
tp118
a(S'explanation question answering [6]'
p119
F13.25
tp120
a(S'generates event group pairs'
p121
F13.167717086834735
tp122
a(S'higher generative probabilities       conditioned'
p123
F13.076923076923077
tp124
a(S'repairs                 makes                 cell phones'
p125
F13.0
tp126
a(S'identify multiple sce-       narios'
p127
F13.0
tp128
a(S'domain-specific data sets       collected'
p129
F12.75
tp130
a(S'world wide web www'
p131
F12.75
tp132
a(S'incremental cue phrase learning       [4]'
p133
F12.75
tp134
a(S'identifying scenario-specific strongly related events'
p135
F12.742857142857144
tp136
a(S'natural language understanding tasks'
p137
F12.566666666666668
tp138
a(S'non-contingency pairs iden-       tified'
p139
F12.514285714285714
tp140
a(S'frequent event group pair'
p141
F12.47464349376114
tp142
a(S'subtopics       generates noisy scenarios'
p143
F12.428571428571429
tp144
a(S'discovering scenario-specific contingency       relationships'
p145
F12.39397406559878
tp146
a(S'identify-       ing causal associations'
p147
F12.303030303030303
tp148
a(S'entails predictably modifying event'
p149
F12.245098039215687
tp150
a(S'identifying scenario-specific events                 layer-2'
p151
F12.188311688311689
tp152
a(S'structure helps finding correlations'
p153
F12.133333333333333
tp154
a(S'pam represent topic-specific       scenarios'
p155
F12.095238095238095
tp156
a(S'contingency learning system architecture'
p157
F11.96727395411606
tp158
a(S'present relevant previous work'
p159
F11.95
tp160
a(S'automatically       identifies contingency information'
p161
F11.932017543859649
tp162
a(S'roles annotation tasks       agreement'
p163
F11.901098901098901
tp164
a(S'identifying frequent event pairs'
p165
F11.859383753501401
tp166
a(S'test sets oles accuracy'
p167
F11.674242424242424
tp168
a(S'predefined linguistic patterns employed'
p169
F11.666666666666668
tp170
a(S'three-layer unsupervised       statistical system'
p171
F11.576923076923077
tp172
a(S'learn strongly dependent scenario events'
p173
F11.544322344322346
tp174
a(S'easily       domain portable model'
p175
F11.44761904761905
tp176
a(S'maximum contingency score       based'
p177
F11.408208020050125
tp178
a(S'automatically identify contingency relationships'
p179
F11.39397406559878
tp180
a(S'automatically identify       contingency relationships'
p181
F11.39397406559878
tp182
a(S'contingency roles assignment task'
p183
F11.390350877192981
tp184
a(S'causal reasoning enables people'
p185
F11.303030303030303
tp186
a(S'hard-to-       build temporal classifiers'
p187
F11.25
tp188
a(S'previous data mining approaches'
p189
F11.178571428571429
tp190
a(S'discovering topic-specific       scenario events'
p191
F11.102597402597404
tp192
a(S'council suspects       gether'
p193
F11.083333333333332
tp194
a(S'identifies rela-       tionships'
p195
F11.033333333333333
tp196
a(S'pachinko allocation       topic model'
p197
F11.019047619047619
tp198
a(S'topic-specific collec-       tions'
p199
F11.0
tp200
a(S'system       obtains good results'
p201
F10.951923076923077
tp202
a(S'identifying topic-specific       scenarios'
p203
F10.928571428571429
tp204
a(S'identifying topic-specific scenarios'
p205
F10.928571428571429
tp206
a(S'discovering topic-specific scenarios'
p207
F10.928571428571429
tp208
a(S'discovering topic-specific scenarios       2'
p209
F10.928571428571429
tp210
a(S'contingency relations       contingency relationship'
p211
F10.928320802005013
tp212
a(S'contingency       causal relations       relations'
p213
F10.871952608794714
tp214
a(S'evaluate contingency relationships ranked'
p215
F10.782862954487669
tp216
a(S'security council held'
p217
F10.75
tp218
a(S'indirect rela-       tionships'
p219
F10.533333333333333
tp220
a(S'natural language events contributing'
p221
F10.254978354978356
tp222
a(S'topic-specific scenario       clusters obtained'
p223
F10.08095238095238
tp224
a(S'katrina hit florida'
p225
F10.041666666666666
tp226
a(S'predefined linguistic patterns'
p227
F9.666666666666668
tp228
a(S'inspected iraqi scientists'
p229
F9.666666666666668
tp230
a(S'hurricane katrina passed'
p231
F9.666666666666666
tp232
a(S'tingency discourse relations'
p233
F9.65546218487395
tp234
a(S'inter-       annotator agreement'
p235
F9.615384615384615
tp236
a(S'katrina       hitflorida late'
p237
F9.541666666666666
tp238
a(S'government rescue plans'
p239
F9.5
tp240
a(S'topic-specific scenarios identified'
p241
F9.428571428571429
tp242
a(S'generate frequent combinations'
p243
F9.4
tp244
a(S'human-agreed test sets'
p245
F9.34090909090909
tp246
a(S'special data       sets'
p247
F9.25
tp248
a(S'developed chemical weapons'
p249
F9.25
tp250
a(S'special data sets [21]'
p251
F9.25
tp252
a(S'developing chemical weapons'
p253
F9.25
tp254
a(S'developing chemical       weapons'
p255
F9.25
tp256
a(S'natural language understanding'
p257
F9.233333333333334
tp258
a(S'identifying causal relationships'
p259
F9.223320158102768
tp260
a(S'linguistic patterns aim'
p261
F9.166666666666668
tp262
a(S'effect roles assignment                 figure 1'
p263
F9.13888888888889
tp264
a(S'frequent event pair'
p265
F9.09964349376114
tp266
a(S'identifying contingency relations'
p267
F9.021303258145362
tp268
a(S'ont el refers'
p269
F9.0
tp270
a(S'conditional prob-       abilities'
p271
F9.0
tp272
a(S'residential homes north       >'
p273
F9.0
tp274
a(S'supervision                 mehwish riaz'
p275
F9.0
tp276
a(S'frequent-pattern tree ap-'
p277
F9.0
tp278
a(S'latent dirichlet al-'
p279
F9.0
tp280
a(S'not-contingent ac-       cording'
p281
F9.0
tp282
a(S'urbana champaign       {       mriaz2'
p283
F9.0
tp284
a(S'beckman institute       university'
p285
F9.0
tp286
a(S'casino barge sits'
p287
F9.0
tp288
a(S'long awaited ipo'
p289
F9.0
tp290
a(S'destructive       <       force emerged'
p291
F9.0
tp292
a(S'learn       causal chains'
p293
F8.969696969696969
tp294
a(S'unlike previous works [16]'
p295
F8.916666666666666
tp296
a(S'natural language processing'
p297
F8.9
tp298
a(S'iraq war test-sets ecd'
p299
F8.840608465608465
tp300
a(S'event       group pairs'
p301
F8.8343837535014
tp302
a(S'candidate event pairs'
p303
F8.792717086834735
tp304
a(S'form good candidates'
p305
F8.791666666666666
tp306
a(S'ranked       contingency relationships'
p307
F8.782862954487669
tp308
a(S'rhetorical structure theory'
p309
F8.777777777777777
tp310
a(S'supervised learning       models [6]'
p311
F8.75
tp312
a(S'supervised       learning models [6]'
p313
F8.75
tp314
a(S'exploring contingency discourse       [7]'
p315
F8.748194014447884
tp316
a(S'classify rhetorical relations'
p317
F8.714285714285715
tp318
a(S'contingency       detection task'
p319
F8.673684210526316
tp320
a(S'contingency detection task'
p321
F8.673684210526316
tp322
a(S'training supervised models'
p323
F8.666666666666666
tp324
a(S'correct roles predicted'
p325
F8.666666666666666
tp326
a(S'international confer-       ence'
p327
F8.666666666666666
tp328
a(S'pam dirichlet parameters'
p329
F8.666666666666666
tp330
a(S'introduction                 unlike computers'
p331
F8.666666666666666
tp332
a(S'comprehending       discourse relations'
p333
F8.65546218487395
tp334
a(S'learning contingency       relations       1'
p335
F8.604636591478698
tp336
a(S'learning contingency relations'
p337
F8.604636591478698
tp338
a(S'maximum cosine       measure'
p339
F8.583333333333334
tp340
a(S'maximum       cosine measure'
p341
F8.583333333333334
tp342
a(S'unsupervised learning model'
p343
F8.566666666666666
tp344
a(S'electronic lexical database'
p345
F8.5
tp346
a(S'jointly combining implicit       [3]'
p347
F8.5
tp348
a(S'online       counterfactual theories'
p349
F8.5
tp350
a(S'probabilistic textual entailment'
p351
F8.5
tp352
a(S'war effects-economic progress'
p353
F8.5
tp354
a(S'generic applied modeling'
p355
F8.5
tp356
a(S'bigram event model'
p357
F8.47843137254902
tp358
a(S'causal lexico-syntactic patterns'
p359
F8.46969696969697
tp360
a(S'contingent/causal event pairs'
p361
F8.4593837535014
tp362
a(S'domain-specific text       collections'
p363
F8.442857142857143
tp364
a(S'interpolated precision-recall curve'
p365
F8.416666666666666
tp366
a(S'topic-specific scenario tend'
p367
F8.414285714285715
tp368
a(S'computational linguistics       acl'
p369
F8.4
tp370
a(S'mine frequent       combinations'
p371
F8.4
tp372
a(S'implicit       contingency relationships'
p373
F8.39397406559878
tp374
a(S'gale       group       http'
p375
F8.375
tp376
a(S'investigating causal relations'
p377
F8.350649350649352
tp378
a(S'iraq war collections'
p379
F8.337037037037037
tp380
a(S'top 100 ranked       relationships'
p381
F8.309178743961352
tp382
a(S'top 100       ranked relationships'
p383
F8.309178743961352
tp384
a(S'causal discourse relations'
p385
F8.291825821237587
tp386
a(S'statistical methods applied'
p387
F8.25
tp388
a(S'human judg-       ments'
p389
F8.25
tp390
a(S'news archives websites'
p391
F8.25
tp392
a(S'topic specific scenarios'
p393
F8.214285714285714
tp394
a(S'identifying scenario-specific events'
p395
F8.188311688311689
tp396
a(S'statis-       tical approach'
p397
F8.166666666666666
tp398
a(S'mining frequent patterns       [10]'
p399
F8.161904761904761
tp400
a(S'implicit discourse relations'
p401
F8.15546218487395
tp402
a(S'[       ]verb obj       subj'
p403
F8.142857142857142
tp404
a(S'< subj verb obj >'
p405
F8.142857142857142
tp406
a(S'make good candidates'
p407
F8.125
tp408
a(S'giving higher       weights'
p409
F8.076923076923077
tp410
a(S'mining causal structures'
p411
F8.064935064935064
tp412
a(S'broader causal relationships'
p413
F8.0566534914361
tp414
a(S'iraq war instances'
p415
F8.037037037037038
tp416
a(S'higher inter-annotator       agreement'
p417
F8.025641025641026
tp418
a(S'advanced topic model'
p419
F8.019047619047619
tp420
a(S'damage       global warming'
p421
F8.0
tp422
a(S'semantic role labeler'
p423
F8.0
tp424
a(S'buy hard drives'
p425
F8.0
tp426
a(S'human-       agreed data'
p427
F8.0
tp428
a(S'north-holland publishing company'
p429
F8.0
tp430
a(S'semantic role labeling'
p431
F8.0
tp432
a(S'statistical measure       effect-control-dependency'
p433
F8.0
tp434
a(S'interpo-       lated precision'
p435
F8.0
tp436
a(S'complete syntactic analysis'
p437
F8.0
tp438
a(S'people perceive       causal'
p439
F7.969696969696969
tp440
a(S'explicit discourse connectives'
p441
F7.9411764705882355
tp442
a(S'identify contingency relationships'
p443
F7.89397406559878
tp444
a(S'identify       contingency relationships'
p445
F7.89397406559878
tp446
a(S'combining local context       [11]'
p447
F7.875
tp448
a(S'table iv       shows'
p449
F7.85
tp450
a(S'table iv shows'
p451
F7.85
tp452
a(S'intelligent       text processing'
p453
F7.809523809523808
tp454
a(S'frequently purchase       laptops'
p455
F7.8
tp456
a(S'contingency annotation task'
p457
F7.7593984962406015
tp458
a(S'proposed approaches depend'
p459
F7.75
tp460
a(S'temporal query logs'
p461
F7.75
tp462
a(S'spe-       cial datasets'
p463
F7.75
tp464
a(S'discover causal relationships'
p465
F7.7233201581027675
tp466
a(S'ecr shows reasonable performance'
p467
F7.69047619047619
tp468
a(S'online encyclo-       causation'
p469
F7.666666666666667
tp470
a(S'6th international workshop'
p471
F7.666666666666666
tp472
a(S'structured mixture models'
p473
F7.666666666666666
tp474
a(S'scenario learning task'
p475
F7.664285714285715
tp476
a(S'effect roles assignment'
p477
F7.638888888888889
tp478
a(S'causal knowledge extraction'
p479
F7.636363636363637
tp480
a(S'precision-recall performance       curves'
p481
F7.607142857142858
tp482
a(S'roxana girju       department'
p483
F7.571428571428571
tp484
a(S'relatedness task shows'
p485
F7.541666666666666
tp486
a(S'iraq war dataset'
p487
F7.537037037037037
tp488
a(S'iraq war       word-types'
p489
F7.537037037037037
tp490
a(S'parameters set manually'
p491
F7.5
tp492
a(S'search queries extracted'
p493
F7.5
tp494
a(S'resulting event groups'
p495
F7.495098039215686
tp496
a(S'event causality       test'
p497
F7.436007130124778
tp498
a(S'topic-specific       scenarios'
p499
F7.428571428571429
tp500
a(S'iraq war collection'
p501
F7.425925925925926
tp502
a(S'iraq war test-sets'
p503
F7.412037037037037
tp504
a(S'tie put event'
p505
F7.411764705882353
tp506
a(S'{       }       inter-sentential contingency relationship'
p507
F7.407017543859649
tp508
a(S'{       } \xe2\x86\x92       {       intra-sentential contingency relationship'
p509
F7.407017543859649
tp510
a(S'annotators needed knowledge'
p511
F7.375
tp512
a(S'semantic entailment       relation'
p513
F7.333333333333334
tp514
a(S'capture contingency relations'
p515
F7.271303258145363
tp516
a(S'machine learning research'
p517
F7.250000000000001
tp518
a(S'interesting cognitive       study'
p519
F7.25
tp520
a(S'english sentence entails'
p521
F7.214285714285714
tp522
a(S'advanced domain knowledge'
p523
F7.214285714285714
tp524
a(S'scenario-specific       events tend'
p525
F7.188311688311688
tp526
a(S'learn-       ing methods'
p527
F7.166666666666666
tp528
a(S'web news articles'
p529
F7.166666666666666
tp530
a(S'single text document'
p531
F7.142857142857142
tp532
a(S'input text units'
p533
F7.142857142857142
tp534
a(S'manipulation theory adopted'
p535
F7.111111111111111
tp536
a(S'wordnet sense similarity'
p537
F7.085714285714285
tp538
a(S'scenario generation task'
p539
F7.080952380952381
tp540
a(S'pam generates'
p541
F7.0
tp542
a(S'emergency       session'
p543
F7.0
tp544
a(S'makes                 repairs'
p545
F7.0
tp546
a(S'calculate average cosine-similarity'
p547
F7.0
tp548
a(S'model assigns sentence'
p549
F6.947619047619048
tp550
a(S'people perceive causality'
p551
F6.933333333333334
tp552
a(S'grouping events procedure'
p553
F6.888311688311688
tp554
a(S'identified contingency       dependencies'
p555
F6.807017543859649
tp556
a(S'katrina disaster'
p557
F6.791666666666666
tp558
a(S'randomly selected 80 test'
p559
F6.757575757575758
tp560
a(S'context-poor statistical measures'
p561
F6.75
tp562
a(S'potential candidates'
p563
F6.75
tp564
a(S'maximum median distance'
p565
F6.708333333333334
tp566
a(S'annotators disagreed       contingency'
p567
F6.682017543859649
tp568
a(S'inspection post-'
p569
F6.666666666666667
tp570
a(S'statistical measure effect-control-ratio'
p571
F6.666666666666667
tp572
a(S'distance penalization       measure'
p573
F6.625
tp574
a(S'automatic sense pre-       [16]'
p575
F6.619047619047619
tp576
a(S'general dependency measures'
p577
F6.6
tp578
a(S'inspection       scenario'
p579
F6.5809523809523816
tp580
a(S'human-agreed       annotated test-sets'
p581
F6.541666666666667
tp582
a(S'find       meaningful order'
p583
F6.5
tp584
a(S'transaction database records'
p585
F6.5
tp586
a(S'rank contingent pairs'
p587
F6.487012987012987
tp588
a(S'pair probabilities'
p589
F6.454545454545455
tp590
a(S'clusters semantically related'
p591
F6.433333333333334
tp592
a(S'collections       agreement'
p593
F6.415384615384616
tp594
a(S'scenario cluster discovered'
p595
F6.414285714285715
tp596
a(S'frequent pair'
p597
F6.3545454545454545
tp598
a(S'table iii'
p599
F6.35
tp600
a.