(lp0
(dp1
S'http://dx.doi.org/10.1109/tvcg.2009.165'
p2
I1
sS'http://dx.doi.org/10.1109/c5.2011.18'
p3
I1
sS'http://dx.doi.org/10.1109/iv.2010.49'
p4
I0
sS'http://dx.doi.org/10.1109/icsc.2010.19'
p5
I1
sacnumpy.core.multiarray
_reconstruct
p6
(cnumpy
ndarray
p7
(I0
tp8
S'b'
p9
tp10
Rp11
(I1
(I1
tp12
cnumpy
dtype
p13
(S'f8'
p14
I0
I1
tp15
Rp16
(I3
S'<'
p17
NNNI-1
I-1
I0
tp18
bI00
S'\x00\x00\x00\x00\x00\x00\xf0?'
p19
tp20
ba.